; Function Attrs: nounwind uwtable
define hidden void @_glfwSetWindowPosNull(ptr noundef %0, i32 noundef %1, i32 noundef %2) local_unnamed_addr #0 {
  %4 = getelementptr inbounds nuw i8, ptr %0, i64 80
  %5 = load ptr, ptr %4, align 8, !tbaa !3
  %.not = icmp eq ptr %5, null
  br i1 %.not, label %6, label %14

6:                                                ; preds = %3
  %7 = getelementptr inbounds nuw i8, ptr %0, i64 3368
  %8 = load i32, ptr %7, align 8, !tbaa !58
  %.not11 = icmp eq i32 %8, %1
  br i1 %.not11, label %9, label %12

9:                                                ; preds = %6
  %10 = getelementptr inbounds nuw i8, ptr %0, i64 3372
  %11 = load i32, ptr %10, align 4, !tbaa !59
  %.not12 = icmp eq i32 %11, %2
  br i1 %.not12, label %14, label %12

12:                                               ; preds = %9, %6
  store i32 %1, ptr %7, align 8, !tbaa !58
  %13 = getelementptr inbounds nuw i8, ptr %0, i64 3372
  store i32 %2, ptr %13, align 4, !tbaa !59
  tail call void @_glfwInputWindowPos(ptr noundef nonnull %0, i32 noundef %1, i32 noundef %2) #11
  br label %14

14:                                               ; preds = %3, %12, %9
  ret void
}